target datalayout = "e-m:e-p270:32:32-p271:32:32-p272:64:64-i64:64-i128:128-f80:128-n8:16:32:64-S128"
target triple = "x86_64-pc-linux-gnu"

%struct._GtkTreeIter = type { i32, ptr, ptr, ptr }
%struct.sview_job_info_t = type { i32, %struct._GtkTreeIter, i8, i32, ptr, ptr, i32, ptr, i32, ptr, ptr, ptr, ptr, ptr, ptr, ptr }

; Function Attrs: nounwind uwtable
define internal void @_update_info_task(ptr noundef %0, ptr noundef %1, ptr noundef %2, ptr noundef %3, i1 noundef zeroext %4) #0 {
  %6 = alloca ptr, align 8
  %7 = alloca ptr, align 8
  %8 = alloca ptr, align 8
  %9 = alloca ptr, align 8
  %10 = alloca i8, align 1
  %11 = alloca i32, align 4
  %12 = alloca %struct._GtkTreeIter, align 8
  %13 = alloca i32, align 4
  %14 = alloca ptr, align 8
  %15 = alloca ptr, align 8
  store ptr %0, ptr %6, align 8
  store ptr %1, ptr %7, align 8
  store ptr %2, ptr %8, align 8
  store ptr %3, ptr %9, align 8
  %16 = zext i1 %4 to i8
  store i8 %16, ptr %10, align 1
  call void @llvm.lifetime.start.p0(i64 4, ptr %11) #11
  call void @llvm.lifetime.start.p0(i64 32, ptr %12) #11
  call void @llvm.lifetime.start.p0(i64 4, ptr %13) #11
  store i32 0, ptr %13, align 4
  call void @llvm.lifetime.start.p0(i64 8, ptr %14) #11
  store ptr null, ptr %14, align 8
  call void @llvm.lifetime.start.p0(i64 8, ptr %15) #11
  store ptr null, ptr %15, align 8
  call void @llvm.memset.p0.i64(ptr align 8 %12, i8 0, i64 32, i1 false)
  %17 = load ptr, ptr %8, align 8
  %18 = icmp ne ptr %17, null
  br i1 %18, label %19, label %35

19:                                               ; preds = %5
  %20 = load ptr, ptr %8, align 8
  call void @llvm.memcpy.p0.p0.i64(ptr align 8 %12, ptr align 8 %20, i64 32, i1 false)
  br label %21

21:                                               ; preds = %32, %19
  br label %22

22:                                               ; preds = %21
  %23 = load ptr, ptr %7, align 8
  %24 = call i64 @gtk_tree_store_get_type() #12
  %25 = call ptr @g_type_check_instance_cast(ptr noundef %23, i64 noundef %24)
  %26 = load ptr, ptr %8, align 8
  call void (ptr, ptr, ...) @gtk_tree_store_set(ptr noundef %25, ptr noundef %26, i32 noundef 91, i32 noundef 0, i32 noundef -1)
  %27 = load ptr, ptr %7, align 8
  %28 = load ptr, ptr %8, align 8
  %29 = call i32 @gtk_tree_model_iter_next(ptr noundef %27, ptr noundef %28)
  %30 = icmp ne i32 %29, 0
  br i1 %30, label %32, label %31

31:                                               ; preds = %22
  br label %33

32:                                               ; preds = %22
  br label %21, !llvm.loop !39

33:                                               ; preds = %31
  %34 = load ptr, ptr %8, align 8
  call void @llvm.memcpy.p0.p0.i64(ptr align 8 %34, ptr align 8 %12, i64 32, i1 false)
  store i32 1, ptr %13, align 4
  br label %35

35:                                               ; preds = %33, %5
  %36 = load i8, ptr %10, align 1, !range !18, !noundef !19
  %37 = trunc i8 %36 to i1
  br i1 %37, label %38, label %43

38:                                               ; preds = %35
  %39 = load ptr, ptr %6, align 8
  %40 = getelementptr inbounds nuw %struct.sview_job_info_t, ptr %39, i32 0, i32 15
  %41 = load ptr, ptr %40, align 8
  %42 = call ptr @list_iterator_create(ptr noundef %41)
  store ptr %42, ptr %14, align 8
  br label %63

43:                                               ; preds = %35
  %44 = load ptr, ptr %6, align 8
  %45 = getelementptr inbounds nuw %struct.sview_job_info_t, ptr %44, i32 0, i32 15
  %46 = load ptr, ptr %45, align 8
  %47 = icmp ne ptr %46, null
  br i1 %47, label %48, label %58

48:                                               ; preds = %43
  %49 = load ptr, ptr %6, align 8
  %50 = getelementptr inbounds nuw %struct.sview_job_info_t, ptr %49, i32 0, i32 15
  %51 = load ptr, ptr %50, align 8
  %52 = call i32 @list_count(ptr noundef %51)
  %53 = icmp ne i32 %52, 0
  br i1 %53, label %54, label %58

54:                                               ; preds = %48
  %55 = load ptr, ptr %6, align 8
  %56 = load ptr, ptr %7, align 8
  %57 = load ptr, ptr %9, align 8
  call void @_handle_task_check(ptr noundef %55, ptr noundef %56, ptr noundef %8, ptr noundef %12, ptr noundef %57, i1 noundef zeroext true)
  br label %58

58:                                               ; preds = %54, %48, %43
  %59 = load ptr, ptr %6, align 8
  %60 = getelementptr inbounds nuw %struct.sview_job_info_t, ptr %59, i32 0, i32 14
  %61 = load ptr, ptr %60, align 8
  %62 = call ptr @list_iterator_create(ptr noundef %61)
  store ptr %62, ptr %14, align 8
  br label %63

63:                                               ; preds = %58, %38
  br label %64

64:                                               ; preds = %68, %63
  %65 = load ptr, ptr %14, align 8
  %66 = call ptr @list_next(ptr noundef %65)
  store ptr %66, ptr %15, align 8
  %67 = icmp ne ptr %66, null
  br i1 %67, label %68, label %72

68:                                               ; preds = %64
  %69 = load ptr, ptr %15, align 8
  %70 = load ptr, ptr %7, align 8
  %71 = load ptr, ptr %9, align 8
  call void @_handle_task_check(ptr noundef %69, ptr noundef %70, ptr noundef %8, ptr noundef %12, ptr noundef %71, i1 noundef zeroext false)
  br label %64, !llvm.loop !40

72:                                               ; preds = %64
  %73 = load ptr, ptr %14, align 8
  call void @list_iterator_destroy(ptr noundef %73)
  %74 = load i32, ptr %13, align 4
  %75 = icmp ne i32 %74, 0
  br i1 %75, label %76, label %100

76:                                               ; preds = %72
  store ptr %12, ptr %8, align 8
  br label %77

77:                                               ; preds = %98, %91, %76
  br label %78

78:                                               ; preds = %77
  %79 = load ptr, ptr %7, align 8
  %80 = load ptr, ptr %8, align 8
  call void (ptr, ptr, ...) @gtk_tree_model_get(ptr noundef %79, ptr noundef %80, i32 noundef 91, ptr noundef %11, i32 noundef -1)
  %81 = load i32, ptr %11, align 4
  %82 = icmp ne i32 %81, 0
  br i1 %82, label %92, label %83

83:                                               ; preds = %78
  %84 = load ptr, ptr %7, align 8
  %85 = call i64 @gtk_tree_store_get_type() #12
  %86 = call ptr @g_type_check_instance_cast(ptr noundef %84, i64 noundef %85)
  %87 = load ptr, ptr %8, align 8
  %88 = call i32 @gtk_tree_store_remove(ptr noundef %86, ptr noundef %87)
  %89 = icmp ne i32 %88, 0
  br i1 %89, label %91, label %90

90:                                               ; preds = %83
  br label %99

91:                                               ; preds = %83
  br label %77, !llvm.loop !41

92:                                               ; preds = %78
  %93 = load ptr, ptr %7, align 8
  %94 = load ptr, ptr %8, align 8
  %95 = call i32 @gtk_tree_model_iter_next(ptr noundef %93, ptr noundef %94)
  %96 = icmp ne i32 %95, 0
  br i1 %96, label %98, label %97

97:                                               ; preds = %92
  br label %99

98:                                               ; preds = %92
  br label %77, !llvm.loop !41

99:                                               ; preds = %97, %90
  br label %100

100:                                              ; preds = %99, %72
  call void @llvm.lifetime.end.p0(i64 8, ptr %15) #11
  call void @llvm.lifetime.end.p0(i64 8, ptr %14) #11
  call void @llvm.lifetime.end.p0(i64 4, ptr %13) #11
  call void @llvm.lifetime.end.p0(i64 32, ptr %12) #11
  call void @llvm.lifetime.end.p0(i64 4, ptr %11) #11
  ret void
}