; Function Attrs: nounwind uwtable
define internal fastcc void @_update_info_task(ptr noundef nonnull %0, ptr noundef %1, ptr noundef %2, ptr noundef nonnull %3, i1 noundef zeroext %4) unnamed_addr #0 {
  %6 = alloca ptr, align 8
  %7 = alloca i32, align 4
  %8 = alloca %struct._GtkTreeIter, align 8
  store ptr %2, ptr %6, align 8
  call void @llvm.lifetime.start.p0(i64 4, ptr nonnull %7) #16
  call void @llvm.lifetime.start.p0(i64 32, ptr nonnull %8) #16
  call void @llvm.memset.p0.i64(ptr noundef nonnull align 8 dereferenceable(32) %8, i8 0, i64 32, i1 false)
  %.not = icmp eq ptr %2, null
  br i1 %.not, label %15, label %9

9:                                                ; preds = %5
  call void @llvm.memcpy.p0.p0.i64(ptr noundef nonnull align 8 dereferenceable(32) %8, ptr noundef nonnull align 8 dereferenceable(32) %2, i64 32, i1 false)
  %10 = tail call i64 @gtk_tree_store_get_type() #17
  br label %11

11:                                               ; preds = %11, %9
  %12 = tail call ptr @g_type_check_instance_cast(ptr noundef %1, i64 noundef %10) #16
  tail call void (ptr, ptr, ...) @gtk_tree_store_set(ptr noundef %12, ptr noundef nonnull %2, i32 noundef 91, i32 noundef 0, i32 noundef -1) #16
  %13 = tail call i32 @gtk_tree_model_iter_next(ptr noundef %1, ptr noundef nonnull %2) #16
  %.not22 = icmp eq i32 %13, 0
  br i1 %.not22, label %14, label %11, !llvm.loop !46

14:                                               ; preds = %11
  call void @llvm.memcpy.p0.p0.i64(ptr noundef nonnull align 8 dereferenceable(32) %2, ptr noundef nonnull align 8 dereferenceable(32) %8, i64 32, i1 false)
  br label %15

15:                                               ; preds = %14, %5
  %16 = getelementptr inbounds nuw i8, ptr %0, i64 136
  %17 = load ptr, ptr %16, align 8
  br i1 %4, label %25, label %18

18:                                               ; preds = %15
  %.not23 = icmp eq ptr %17, null
  br i1 %.not23, label %22, label %19

19:                                               ; preds = %18
  %20 = tail call i32 @list_count(ptr noundef nonnull %17) #16
  %.not24 = icmp eq i32 %20, 0
  br i1 %.not24, label %22, label %21

21:                                               ; preds = %19
  call fastcc void @_handle_task_check(ptr noundef %0, ptr noundef %1, ptr noundef %6, ptr noundef %8, ptr noundef %3, i1 noundef zeroext true)
  br label %22

22:                                               ; preds = %21, %19, %18
  %23 = getelementptr inbounds nuw i8, ptr %0, i64 128
  %24 = load ptr, ptr %23, align 8
  br label %25

25:                                               ; preds = %15, %22
  %.sink = phi ptr [ %24, %22 ], [ %17, %15 ]
  %26 = tail call ptr @list_iterator_create(ptr noundef %.sink) #16
  %27 = tail call ptr @list_next(ptr noundef %26) #16
  %.not2530 = icmp eq ptr %27, null
  br i1 %.not2530, label %._crit_edge, label %.lr.ph

.lr.ph:                                           ; preds = %25, %.lr.ph
  %28 = phi ptr [ %29, %.lr.ph ], [ %27, %25 ]
  call fastcc void @_handle_task_check(ptr noundef %28, ptr noundef %1, ptr noundef %6, ptr noundef %8, ptr noundef %3, i1 noundef zeroext false)
  %29 = tail call ptr @list_next(ptr noundef %26) #16
  %.not25 = icmp eq ptr %29, null
  br i1 %.not25, label %._crit_edge, label %.lr.ph, !llvm.loop !45

._crit_edge:                                      ; preds = %.lr.ph, %25
  tail call void @list_iterator_destroy(ptr noundef %26) #16
  br i1 %.not, label %.loopexit, label %.preheader

.preheader:                                       ; preds = %._crit_edge, %.preheader.backedge
  call void (ptr, ptr, ...) @gtk_tree_model_get(ptr noundef %1, ptr noundef nonnull %8, i32 noundef 91, ptr noundef nonnull %7, i32 noundef -1) #16
  %30 = load i32, ptr %7, align 4
  %.not27 = icmp eq i32 %30, 0
  br i1 %.not27, label %31, label %35

31:                                               ; preds = %.preheader
  %32 = tail call i64 @gtk_tree_store_get_type() #17
  %33 = call ptr @g_type_check_instance_cast(ptr noundef %1, i64 noundef %32) #16
  %34 = call i32 @gtk_tree_store_remove(ptr noundef %33, ptr noundef nonnull %8) #16
  %.not28 = icmp eq i32 %34, 0
  br i1 %.not28, label %.loopexit, label %.preheader.backedge

.preheader.backedge:                              ; preds = %31, %35
  br label %.preheader, !llvm.loop !47

35:                                               ; preds = %.preheader
  %36 = call i32 @gtk_tree_model_iter_next(ptr noundef %1, ptr noundef nonnull %8) #16
  %.not29 = icmp eq i32 %36, 0
  br i1 %.not29, label %.loopexit, label %.preheader.backedge

.loopexit:                                        ; preds = %31, %35, %._crit_edge
  call void @llvm.lifetime.end.p0(i64 32, ptr nonnull %8) #16
  call void @llvm.lifetime.end.p0(i64 4, ptr nonnull %7) #16
  ret void
}